; Function Attrs: mustprogress nofree norecurse nosync nounwind willreturn memory(read, inaccessiblemem: none) uwtable
define internal noundef i64 @_ZNK9grpc_core12_GLOBAL__N_122XdsServerConfigFetcher15ListenerWatcher23FilterChainMatchManager23XdsServerConfigSelector11VirtualHost17RouteListIterator4SizeEv(ptr nocapture noundef nonnull readonly align 8 dereferenceable(16) %this) unnamed_addr #19 align 2 {
entry:
  %routes_ = getelementptr inbounds i8, ptr %this, i64 8
  %0 = load ptr, ptr %routes_, align 8
  %.val = load ptr, ptr %0, align 8
  %1 = getelementptr i8, ptr %0, i64 8
  %.val1 = load ptr, ptr %1, align 8
  %sub.ptr.lhs.cast.i = ptrtoint ptr %.val1 to i64
  %sub.ptr.rhs.cast.i = ptrtoint ptr %.val to i64
  %sub.ptr.sub.i = sub i64 %sub.ptr.lhs.cast.i, %sub.ptr.rhs.cast.i
  %sub.ptr.div.i = sdiv exact i64 %sub.ptr.sub.i, 104
  ret i64 %sub.ptr.div.i
}